target datalayout = "e-m:e-p270:32:32-p271:32:32-p272:64:64-i64:64-i128:128-f80:128-n8:16:32:64-S128"
target triple = "x86_64-pc-linux-gnu"

; Function Attrs: nounwind uwtable
define internal i64 @lzma2_bound(i64 noundef %0) #0 {
  %2 = alloca i64, align 8
  %3 = alloca i64, align 8
  %4 = alloca i64, align 8
  %5 = alloca i32, align 4
  store i64 %0, ptr %3, align 8, !tbaa !4
  %6 = load i64, ptr %3, align 8, !tbaa !4
  %7 = icmp ugt i64 %6, 9223372036854774716
  br i1 %7, label %8, label %9

8:                                                ; preds = %1
  store i64 0, ptr %2, align 8
  br label %26

9:                                                ; preds = %1
  call void @llvm.lifetime.start.p0(i64 8, ptr %4) #7
  %10 = load i64, ptr %3, align 8, !tbaa !4
  %11 = add i64 %10, 65536
  %12 = sub i64 %11, 1
  %13 = udiv i64 %12, 65536
  %14 = mul i64 %13, 3
  %15 = add i64 %14, 1
  store i64 %15, ptr %4, align 8, !tbaa !4
  %16 = load i64, ptr %4, align 8, !tbaa !4
  %17 = sub i64 9223372036854774716, %16
  %18 = load i64, ptr %3, align 8, !tbaa !4
  %19 = icmp ult i64 %17, %18
  br i1 %19, label %20, label %21

20:                                               ; preds = %9
  store i64 0, ptr %2, align 8
  store i32 1, ptr %5, align 4
  br label %25

21:                                               ; preds = %9
  %22 = load i64, ptr %3, align 8, !tbaa !4
  %23 = load i64, ptr %4, align 8, !tbaa !4
  %24 = add i64 %22, %23
  store i64 %24, ptr %2, align 8
  store i32 1, ptr %5, align 4
  br label %25

25:                                               ; preds = %21, %20
  call void @llvm.lifetime.end.p0(i64 8, ptr %4) #7
  br label %26

26:                                               ; preds = %25, %8
  %27 = load i64, ptr %2, align 8
  ret i64 %27
}

; Function Attrs: nounwind uwtable
define dso_local i64 @lzma_block_buffer_bound64(i64 noundef %0) #0 {
  %2 = alloca i64, align 8
  %3 = alloca i64, align 8
  %4 = alloca i64, align 8
  %5 = alloca i32, align 4
  store i64 %0, ptr %3, align 8, !tbaa !4
  call void @llvm.lifetime.start.p0(i64 8, ptr %4) #7
  %6 = load i64, ptr %3, align 8, !tbaa !4
  %7 = call i64 @lzma2_bound(i64 noundef %6)
  store i64 %7, ptr %4, align 8, !tbaa !4
  %8 = load i64, ptr %4, align 8, !tbaa !4
  %9 = icmp eq i64 %8, 0
  br i1 %9, label %10, label %11

10:                                               ; preds = %1
  store i64 0, ptr %2, align 8
  store i32 1, ptr %5, align 4
  br label %17

11:                                               ; preds = %1
  %12 = load i64, ptr %4, align 8, !tbaa !4
  %13 = add i64 %12, 3
  %14 = and i64 %13, -4
  store i64 %14, ptr %4, align 8, !tbaa !4
  %15 = load i64, ptr %4, align 8, !tbaa !4
  %16 = add i64 92, %15
  store i64 %16, ptr %2, align 8
  store i32 1, ptr %5, align 4
  br label %17

17:                                               ; preds = %11, %10
  call void @llvm.lifetime.end.p0(i64 8, ptr %4) #7
  %18 = load i64, ptr %2, align 8
  ret i64 %18
}